; Function Attrs: mustprogress uwtable
define internal void @_ZL11done_pollerPvN4absl12lts_202308026StatusE(ptr noundef %bp, ptr nocapture readnone %0) #6 {
entry:
  %1 = load atomic i8, ptr getelementptr inbounds (%"class.grpc_core::TraceFlag", ptr @grpc_tcp_trace, i64 0, i32 2, i32 0, i32 0) monotonic, align 8
  %2 = and i8 %1, 1
  %tobool.i.i.i.not = icmp eq i8 %2, 0
  br i1 %tobool.i.i.i.not, label %if.end, label %if.then

if.then:                                          ; preds = %entry
  tail call void (ptr, i32, i32, ptr, ...) @gpr_log(ptr noundef nonnull @.str, i32 noundef 584, i32 noundef 1, ptr noundef nonnull @.str.42, ptr noundef %bp)
  br label %if.end

if.end:                                           ; preds = %if.then, %entry
  %add.ptr = getelementptr inbounds i8, ptr %bp, i64 40
  tail call void @_Z20grpc_pollset_destroyP12grpc_pollset(ptr noundef nonnull %add.ptr)
  tail call void @gpr_free(ptr noundef %bp)
  ret void
}